(lp1
(lp2
S'com.zeitgeist-project,datahub,recent'
p3
aVRecently Used Documents
p4
aVLogs events from GtkRecentlyUsed
p5
a(lp6
aI01
aI1335433961694
aI01
aa(lp7
S'com.zeitgeist-project,datahub,gio-launch-listener'
p8
aVLaunched desktop files
p9
aVLogs events about launched desktop files using GIO
p10
a(lp11
aI01
aI1335433961688
aI01
aa.